target datalayout = "e-m:e-p270:32:32-p271:32:32-p272:64:64-i64:64-i128:128-f80:128-n8:16:32:64-S128"
target triple = "x86_64-pc-linux-gnu"

%struct.ARKodeMemRec = type { ptr, double, ptr, i32, i32, double, double, ptr, i32, double, ptr, i32, i32, ptr, ptr, i32, ptr, ptr, i32, ptr, ptr, ptr, ptr, ptr, ptr, ptr, ptr, ptr, ptr, ptr, ptr, ptr, ptr, ptr, i32, ptr, ptr, i32, ptr, i32, ptr, ptr, ptr, ptr, ptr, ptr, ptr, ptr, ptr, ptr, ptr, ptr, ptr, ptr, ptr, ptr, ptr, ptr, ptr, ptr, ptr, ptr, ptr, ptr, ptr, ptr, i32, ptr, ptr, ptr, ptr, ptr, ptr, ptr, i32, ptr, ptr, ptr, i32, ptr, ptr, ptr, ptr, ptr, ptr, ptr, i32, i32, i32, i32, double, double, double, double, double, double, double, double, double, double, i32, ptr, i64, i32, i32, i32, i32, i64, i64, i32, i64, i64, i64, i64, i64, i64, i64, double, double, double, double, double, i32, double, double, i32, i32, i32, i32, i32, i32, i32, i32, ptr, i32, ptr, ptr, ptr, ptr, i32, i32, i32 }
%struct.ARKodeERKStepMemRec = type { ptr, ptr, i32, i32, i32, ptr, i64, ptr, ptr, i32, double, double, ptr, i32, ptr, ptr }

@.str = private unnamed_addr constant [123 x i8] c"generated/home/dtcxzyw/WorkSpace/Projects/compilers/llvm-opt-benchmark/bench/sundials/sundials/src/arkode/arkode_erkstep.c\00", align 1
@__func__.erkStep_PrintMem = private unnamed_addr constant [17 x i8] c"erkStep_PrintMem\00", align 1
@.str.11 = private unnamed_addr constant [17 x i8] c"ERKStep: q = %i\0A\00", align 1
@.str.12 = private unnamed_addr constant [17 x i8] c"ERKStep: p = %i\0A\00", align 1
@.str.13 = private unnamed_addr constant [22 x i8] c"ERKStep: stages = %i\0A\00", align 1
@.str.14 = private unnamed_addr constant [20 x i8] c"ERKStep: nfe = %li\0A\00", align 1
@.str.15 = private unnamed_addr constant [25 x i8] c"ERKStep: Butcher table:\0A\00", align 1
@.str.21 = private unnamed_addr constant [33 x i8] c"Time step module memory is NULL.\00", align 1

; Function Attrs: nounwind uwtable
define i32 @erkStep_AccessStepMem(ptr noundef %0, ptr noundef %1, ptr noundef %2) #0 {
  %4 = alloca i32, align 4
  %5 = alloca ptr, align 8
  %6 = alloca ptr, align 8
  %7 = alloca ptr, align 8
  store ptr %0, ptr %5, align 8, !tbaa !15
  store ptr %1, ptr %6, align 8, !tbaa !115
  store ptr %2, ptr %7, align 8, !tbaa !119
  %8 = load ptr, ptr %5, align 8, !tbaa !15
  %9 = getelementptr inbounds nuw %struct.ARKodeMemRec, ptr %8, i32 0, i32 19
  %10 = load ptr, ptr %9, align 8, !tbaa !41
  %11 = icmp eq ptr %10, null
  br i1 %11, label %12, label %15

12:                                               ; preds = %3
  %13 = load ptr, ptr %5, align 8, !tbaa !15
  %14 = load ptr, ptr %6, align 8, !tbaa !115
  call void (ptr, i32, i32, ptr, ptr, ptr, ...) @arkProcessError(ptr noundef %13, i32 noundef -21, i32 noundef 908, ptr noundef %14, ptr noundef @.str, ptr noundef @.str.21)
  store i32 -21, ptr %4, align 4
  br label %20

15:                                               ; preds = %3
  %16 = load ptr, ptr %5, align 8, !tbaa !15
  %17 = getelementptr inbounds nuw %struct.ARKodeMemRec, ptr %16, i32 0, i32 19
  %18 = load ptr, ptr %17, align 8, !tbaa !41
  %19 = load ptr, ptr %7, align 8, !tbaa !119
  store ptr %18, ptr %19, align 8, !tbaa !17
  store i32 0, ptr %4, align 4
  br label %20

20:                                               ; preds = %15, %12
  %21 = load i32, ptr %4, align 4
  ret i32 %21
}

; Function Attrs: nounwind uwtable
define void @erkStep_PrintMem(ptr noundef %0, ptr noundef %1) #0 {
  %3 = alloca ptr, align 8
  %4 = alloca ptr, align 8
  %5 = alloca ptr, align 8
  %6 = alloca i32, align 4
  %7 = alloca i32, align 4
  store ptr %0, ptr %3, align 8, !tbaa !15
  store ptr %1, ptr %4, align 8, !tbaa !110
  call void @llvm.lifetime.start.p0(i64 8, ptr %5) #8
  call void @llvm.lifetime.start.p0(i64 4, ptr %6) #8
  %8 = load ptr, ptr %3, align 8, !tbaa !15
  %9 = call i32 @erkStep_AccessStepMem(ptr noundef %8, ptr noundef @__func__.erkStep_PrintMem, ptr noundef %5)
  store i32 %9, ptr %6, align 4, !tbaa !13
  %10 = load i32, ptr %6, align 4, !tbaa !13
  %11 = icmp ne i32 %10, 0
  br i1 %11, label %12, label %13

12:                                               ; preds = %2
  store i32 1, ptr %7, align 4
  br label %40

13:                                               ; preds = %2
  %14 = load ptr, ptr %4, align 8, !tbaa !110
  %15 = load ptr, ptr %5, align 8, !tbaa !17
  %16 = getelementptr inbounds nuw %struct.ARKodeERKStepMemRec, ptr %15, i32 0, i32 2
  %17 = load i32, ptr %16, align 8, !tbaa !78
  %18 = call i32 (ptr, ptr, ...) @fprintf(ptr noundef %14, ptr noundef @.str.11, i32 noundef %17) #8
  %19 = load ptr, ptr %4, align 8, !tbaa !110
  %20 = load ptr, ptr %5, align 8, !tbaa !17
  %21 = getelementptr inbounds nuw %struct.ARKodeERKStepMemRec, ptr %20, i32 0, i32 3
  %22 = load i32, ptr %21, align 4, !tbaa !81
  %23 = call i32 (ptr, ptr, ...) @fprintf(ptr noundef %19, ptr noundef @.str.12, i32 noundef %22) #8
  %24 = load ptr, ptr %4, align 8, !tbaa !110
  %25 = load ptr, ptr %5, align 8, !tbaa !17
  %26 = getelementptr inbounds nuw %struct.ARKodeERKStepMemRec, ptr %25, i32 0, i32 4
  %27 = load i32, ptr %26, align 8, !tbaa !83
  %28 = call i32 (ptr, ptr, ...) @fprintf(ptr noundef %24, ptr noundef @.str.13, i32 noundef %27) #8
  %29 = load ptr, ptr %4, align 8, !tbaa !110
  %30 = load ptr, ptr %5, align 8, !tbaa !17
  %31 = getelementptr inbounds nuw %struct.ARKodeERKStepMemRec, ptr %30, i32 0, i32 6
  %32 = load i64, ptr %31, align 8, !tbaa !49
  %33 = call i32 (ptr, ptr, ...) @fprintf(ptr noundef %29, ptr noundef @.str.14, i64 noundef %32) #8
  %34 = load ptr, ptr %4, align 8, !tbaa !110
  %35 = call i32 (ptr, ptr, ...) @fprintf(ptr noundef %34, ptr noundef @.str.15) #8
  %36 = load ptr, ptr %5, align 8, !tbaa !17
  %37 = getelementptr inbounds nuw %struct.ARKodeERKStepMemRec, ptr %36, i32 0, i32 5
  %38 = load ptr, ptr %37, align 8, !tbaa !70
  %39 = load ptr, ptr %4, align 8, !tbaa !110
  call void @ARKodeButcherTable_Write(ptr noundef %38, ptr noundef %39)
  store i32 0, ptr %7, align 4
  br label %40

40:                                               ; preds = %13, %12
  call void @llvm.lifetime.end.p0(i64 4, ptr %6) #8
  call void @llvm.lifetime.end.p0(i64 8, ptr %5) #8
  %41 = load i32, ptr %7, align 4
  switch i32 %41, label %43 [
    i32 0, label %42
    i32 1, label %42
  ]

42:                                               ; preds = %40, %40
  ret void

43:                                               ; preds = %40
  unreachable
}