; Function Attrs: nounwind uwtable
define void @erkStep_PrintMem(ptr noundef %0, ptr noundef %1) #0 {
  %3 = getelementptr inbounds nuw i8, ptr %0, i64 136
  %4 = load ptr, ptr %3, align 8, !tbaa !44
  %5 = icmp eq ptr %4, null
  br i1 %5, label %erkStep_AccessStepMem.exit, label %6

erkStep_AccessStepMem.exit:                       ; preds = %2
  tail call void (ptr, i32, i32, ptr, ptr, ptr, ...) @arkProcessError(ptr noundef nonnull %0, i32 noundef -21, i32 noundef 908, ptr noundef nonnull @__func__.erkStep_PrintMem, ptr noundef nonnull @.str, ptr noundef nonnull @.str.21) #12
  br label %22

6:                                                ; preds = %2
  %7 = getelementptr inbounds nuw i8, ptr %4, i64 16
  %8 = load i32, ptr %7, align 8, !tbaa !67
  %9 = tail call i32 (ptr, ptr, ...) @fprintf(ptr noundef %1, ptr noundef nonnull @.str.11, i32 noundef %8) #12
  %10 = getelementptr inbounds nuw i8, ptr %4, i64 20
  %11 = load i32, ptr %10, align 4, !tbaa !70
  %12 = tail call i32 (ptr, ptr, ...) @fprintf(ptr noundef %1, ptr noundef nonnull @.str.12, i32 noundef %11) #12
  %13 = getelementptr inbounds nuw i8, ptr %4, i64 24
  %14 = load i32, ptr %13, align 8, !tbaa !72
  %15 = tail call i32 (ptr, ptr, ...) @fprintf(ptr noundef %1, ptr noundef nonnull @.str.13, i32 noundef %14) #12
  %16 = getelementptr inbounds nuw i8, ptr %4, i64 40
  %17 = load i64, ptr %16, align 8, !tbaa !85
  %18 = tail call i32 (ptr, ptr, ...) @fprintf(ptr noundef %1, ptr noundef nonnull @.str.14, i64 noundef %17) #12
  %19 = tail call i64 @fwrite(ptr nonnull @.str.15, i64 24, i64 1, ptr %1)
  %20 = getelementptr inbounds nuw i8, ptr %4, i64 32
  %21 = load ptr, ptr %20, align 8, !tbaa !59
  tail call void @ARKodeButcherTable_Write(ptr noundef %21, ptr noundef %1) #12
  br label %22

22:                                               ; preds = %erkStep_AccessStepMem.exit, %6
  ret void
}